target datalayout = "e-m:e-p270:32:32-p271:32:32-p272:64:64-i64:64-i128:128-f80:128-n8:16:32:64-S128"
target triple = "x86_64-pc-linux-gnu"

%struct.lean_object = type { i32, i32 }

; Function Attrs: alwaysinline nounwind uwtable
define internal void @lean_dec_ref(ptr noundef %0) #1 {
  %2 = alloca ptr, align 8
  store ptr %0, ptr %2, align 8, !tbaa !4
  %3 = load ptr, ptr %2, align 8, !tbaa !4
  %4 = getelementptr inbounds nuw %struct.lean_object, ptr %3, i32 0, i32 0
  %5 = load i32, ptr %4, align 4, !tbaa !15
  %6 = icmp sgt i32 %5, 1
  %7 = zext i1 %6 to i32
  %8 = sext i32 %7 to i64
  %9 = call i64 @llvm.expect.i64(i64 %8, i64 1)
  %10 = icmp ne i64 %9, 0
  br i1 %10, label %11, label %16

11:                                               ; preds = %1
  %12 = load ptr, ptr %2, align 8, !tbaa !4
  %13 = getelementptr inbounds nuw %struct.lean_object, ptr %12, i32 0, i32 0
  %14 = load i32, ptr %13, align 4, !tbaa !15
  %15 = add i32 %14, -1
  store i32 %15, ptr %13, align 4, !tbaa !15
  br label %24

16:                                               ; preds = %1
  %17 = load ptr, ptr %2, align 8, !tbaa !4
  %18 = getelementptr inbounds nuw %struct.lean_object, ptr %17, i32 0, i32 0
  %19 = load i32, ptr %18, align 4, !tbaa !15
  %20 = icmp ne i32 %19, 0
  br i1 %20, label %21, label %23

21:                                               ; preds = %16
  %22 = load ptr, ptr %2, align 8, !tbaa !4
  call void @lean_dec_ref_cold(ptr noundef %22)
  br label %23

23:                                               ; preds = %21, %16
  br label %24

24:                                               ; preds = %23, %11
  ret void
}

; Function Attrs: alwaysinline nounwind uwtable
define internal zeroext i1 @lean_is_scalar(ptr noundef %0) #1 {
  %2 = alloca ptr, align 8
  store ptr %0, ptr %2, align 8, !tbaa !4
  %3 = load ptr, ptr %2, align 8, !tbaa !4
  %4 = ptrtoint ptr %3 to i64
  %5 = and i64 %4, 1
  %6 = icmp eq i64 %5, 1
  ret i1 %6
}

; Function Attrs: alwaysinline nounwind uwtable
define internal void @lean_dec(ptr noundef %0) #1 {
  %2 = alloca ptr, align 8
  store ptr %0, ptr %2, align 8, !tbaa !4
  %3 = load ptr, ptr %2, align 8, !tbaa !4
  %4 = call zeroext i1 @lean_is_scalar(ptr noundef %3)
  br i1 %4, label %7, label %5

5:                                                ; preds = %1
  %6 = load ptr, ptr %2, align 8, !tbaa !4
  call void @lean_dec_ref(ptr noundef %6)
  br label %7

7:                                                ; preds = %5, %1
  ret void
}

; Function Attrs: nounwind uwtable
define zeroext i8 @l___private_Lean_Meta_Tactic_Grind_EMatch_0__Lean_Meta_Grind_EMatch_eqvFunctions(ptr noundef %0, ptr noundef %1) #2 {
  %3 = alloca i8, align 1
  %4 = alloca ptr, align 8
  %5 = alloca ptr, align 8
  %6 = alloca i8, align 1
  %7 = alloca i8, align 1
  %8 = alloca i8, align 1
  %9 = alloca i32, align 4
  %10 = alloca ptr, align 8
  %11 = alloca i8, align 1
  %12 = alloca i8, align 1
  %13 = alloca i8, align 1
  %14 = alloca i8, align 1
  %15 = alloca ptr, align 8
  %16 = alloca i8, align 1
  %17 = alloca i8, align 1
  store ptr %0, ptr %4, align 8, !tbaa !4
  store ptr %1, ptr %5, align 8, !tbaa !4
  br label %18

18:                                               ; preds = %2
  call void @llvm.lifetime.start.p0(i64 1, ptr %6) #8
  %19 = load ptr, ptr %4, align 8, !tbaa !4
  %20 = call zeroext i8 @l_Lean_Expr_isFVar(ptr noundef %19)
  store i8 %20, ptr %6, align 1, !tbaa !12
  %21 = load i8, ptr %6, align 1, !tbaa !12
  %22 = zext i8 %21 to i32
  %23 = icmp eq i32 %22, 0
  br i1 %23, label %24, label %41

24:                                               ; preds = %18
  call void @llvm.lifetime.start.p0(i64 1, ptr %7) #8
  %25 = load ptr, ptr %4, align 8, !tbaa !4
  %26 = call zeroext i8 @l_Lean_Expr_isConst(ptr noundef %25)
  store i8 %26, ptr %7, align 1, !tbaa !12
  %27 = load i8, ptr %7, align 1, !tbaa !12
  %28 = zext i8 %27 to i32
  %29 = icmp eq i32 %28, 0
  br i1 %29, label %30, label %32

30:                                               ; preds = %24
  call void @llvm.lifetime.start.p0(i64 1, ptr %8) #8
  store i8 0, ptr %8, align 1, !tbaa !12
  %31 = load i8, ptr %8, align 1, !tbaa !12
  store i8 %31, ptr %3, align 1
  store i32 1, ptr %9, align 4
  call void @llvm.lifetime.end.p0(i64 1, ptr %8) #8
  br label %40

32:                                               ; preds = %24
  call void @llvm.lifetime.start.p0(i64 8, ptr %10) #8
  call void @llvm.lifetime.start.p0(i64 1, ptr %11) #8
  %33 = load ptr, ptr %4, align 8, !tbaa !4
  %34 = call ptr @l_Lean_Expr_constName_x21(ptr noundef %33)
  store ptr %34, ptr %10, align 8, !tbaa !4
  %35 = load ptr, ptr %5, align 8, !tbaa !4
  %36 = load ptr, ptr %10, align 8, !tbaa !4
  %37 = call zeroext i8 @l_Lean_Expr_isConstOf(ptr noundef %35, ptr noundef %36)
  store i8 %37, ptr %11, align 1, !tbaa !12
  %38 = load ptr, ptr %10, align 8, !tbaa !4
  call void @lean_dec(ptr noundef %38)
  %39 = load i8, ptr %11, align 1, !tbaa !12
  store i8 %39, ptr %3, align 1
  store i32 1, ptr %9, align 4
  call void @llvm.lifetime.end.p0(i64 1, ptr %11) #8
  call void @llvm.lifetime.end.p0(i64 8, ptr %10) #8
  br label %40

40:                                               ; preds = %32, %30
  call void @llvm.lifetime.end.p0(i64 1, ptr %7) #8
  br label %68

41:                                               ; preds = %18
  call void @llvm.lifetime.start.p0(i64 1, ptr %12) #8
  %42 = load ptr, ptr %4, align 8, !tbaa !4
  %43 = load ptr, ptr %5, align 8, !tbaa !4
  %44 = call zeroext i8 @lean_expr_eqv(ptr noundef %42, ptr noundef %43)
  store i8 %44, ptr %12, align 1, !tbaa !12
  %45 = load i8, ptr %12, align 1, !tbaa !12
  %46 = zext i8 %45 to i32
  %47 = icmp eq i32 %46, 0
  br i1 %47, label %48, label %65

48:                                               ; preds = %41
  call void @llvm.lifetime.start.p0(i64 1, ptr %13) #8
  %49 = load ptr, ptr %4, align 8, !tbaa !4
  %50 = call zeroext i8 @l_Lean_Expr_isConst(ptr noundef %49)
  store i8 %50, ptr %13, align 1, !tbaa !12
  %51 = load i8, ptr %13, align 1, !tbaa !12
  %52 = zext i8 %51 to i32
  %53 = icmp eq i32 %52, 0
  br i1 %53, label %54, label %56

54:                                               ; preds = %48
  call void @llvm.lifetime.start.p0(i64 1, ptr %14) #8
  store i8 0, ptr %14, align 1, !tbaa !12
  %55 = load i8, ptr %14, align 1, !tbaa !12
  store i8 %55, ptr %3, align 1
  store i32 1, ptr %9, align 4
  call void @llvm.lifetime.end.p0(i64 1, ptr %14) #8
  br label %64

56:                                               ; preds = %48
  call void @llvm.lifetime.start.p0(i64 8, ptr %15) #8
  call void @llvm.lifetime.start.p0(i64 1, ptr %16) #8
  %57 = load ptr, ptr %4, align 8, !tbaa !4
  %58 = call ptr @l_Lean_Expr_constName_x21(ptr noundef %57)
  store ptr %58, ptr %15, align 8, !tbaa !4
  %59 = load ptr, ptr %5, align 8, !tbaa !4
  %60 = load ptr, ptr %15, align 8, !tbaa !4
  %61 = call zeroext i8 @l_Lean_Expr_isConstOf(ptr noundef %59, ptr noundef %60)
  store i8 %61, ptr %16, align 1, !tbaa !12
  %62 = load ptr, ptr %15, align 8, !tbaa !4
  call void @lean_dec(ptr noundef %62)
  %63 = load i8, ptr %16, align 1, !tbaa !12
  store i8 %63, ptr %3, align 1
  store i32 1, ptr %9, align 4
  call void @llvm.lifetime.end.p0(i64 1, ptr %16) #8
  call void @llvm.lifetime.end.p0(i64 8, ptr %15) #8
  br label %64

64:                                               ; preds = %56, %54
  call void @llvm.lifetime.end.p0(i64 1, ptr %13) #8
  br label %67

65:                                               ; preds = %41
  call void @llvm.lifetime.start.p0(i64 1, ptr %17) #8
  store i8 1, ptr %17, align 1, !tbaa !12
  %66 = load i8, ptr %17, align 1, !tbaa !12
  store i8 %66, ptr %3, align 1
  store i32 1, ptr %9, align 4
  call void @llvm.lifetime.end.p0(i64 1, ptr %17) #8
  br label %67

67:                                               ; preds = %65, %64
  call void @llvm.lifetime.end.p0(i64 1, ptr %12) #8
  br label %68

68:                                               ; preds = %67, %40
  call void @llvm.lifetime.end.p0(i64 1, ptr %6) #8
  %69 = load i8, ptr %3, align 1
  ret i8 %69
}