; Function Attrs: nounwind uwtable
define zeroext i8 @l___private_Lean_Meta_Tactic_Grind_EMatch_0__Lean_Meta_Grind_EMatch_eqvFunctions(ptr noundef %0, ptr noundef %1) local_unnamed_addr #0 {
  %3 = tail call zeroext i8 @l_Lean_Expr_isFVar(ptr noundef %0) #5
  %4 = icmp eq i8 %3, 0
  br i1 %4, label %5, label %20

5:                                                ; preds = %2
  %6 = tail call zeroext i8 @l_Lean_Expr_isConst(ptr noundef %0) #5
  %7 = icmp eq i8 %6, 0
  br i1 %7, label %lean_dec.exit22, label %8

8:                                                ; preds = %5
  %9 = tail call ptr @l_Lean_Expr_constName_x21(ptr noundef %0) #5
  %10 = tail call zeroext i8 @l_Lean_Expr_isConstOf(ptr noundef %1, ptr noundef %9) #5
  %11 = ptrtoint ptr %9 to i64
  %12 = and i64 %11, 1
  %.not25 = icmp eq i64 %12, 0
  br i1 %.not25, label %13, label %lean_dec.exit22

13:                                               ; preds = %8
  %14 = load i32, ptr %9, align 4, !tbaa !8
  %15 = icmp sgt i32 %14, 1
  br i1 %15, label %16, label %18, !prof !11

16:                                               ; preds = %13
  %17 = add nsw i32 %14, -1
  store i32 %17, ptr %9, align 4, !tbaa !8
  br label %lean_dec.exit22

18:                                               ; preds = %13
  %.not.i = icmp eq i32 %14, 0
  br i1 %.not.i, label %lean_dec.exit22, label %19

19:                                               ; preds = %18
  tail call void @lean_dec_ref_cold(ptr noundef nonnull %9) #5
  br label %lean_dec.exit22

20:                                               ; preds = %2
  %21 = tail call zeroext i8 @lean_expr_eqv(ptr noundef %0, ptr noundef %1) #5
  %22 = icmp eq i8 %21, 0
  br i1 %22, label %23, label %lean_dec.exit22

23:                                               ; preds = %20
  %24 = tail call zeroext i8 @l_Lean_Expr_isConst(ptr noundef %0) #5
  %25 = icmp eq i8 %24, 0
  br i1 %25, label %lean_dec.exit22, label %26

26:                                               ; preds = %23
  %27 = tail call ptr @l_Lean_Expr_constName_x21(ptr noundef %0) #5
  %28 = tail call zeroext i8 @l_Lean_Expr_isConstOf(ptr noundef %1, ptr noundef %27) #5
  %29 = ptrtoint ptr %27 to i64
  %30 = and i64 %29, 1
  %.not = icmp eq i64 %30, 0
  br i1 %.not, label %31, label %lean_dec.exit22

31:                                               ; preds = %26
  %32 = load i32, ptr %27, align 4, !tbaa !8
  %33 = icmp sgt i32 %32, 1
  br i1 %33, label %34, label %36, !prof !11

34:                                               ; preds = %31
  %35 = add nsw i32 %32, -1
  store i32 %35, ptr %27, align 4, !tbaa !8
  br label %lean_dec.exit22

36:                                               ; preds = %31
  %.not.i23 = icmp eq i32 %32, 0
  br i1 %.not.i23, label %lean_dec.exit22, label %37

37:                                               ; preds = %36
  tail call void @lean_dec_ref_cold(ptr noundef nonnull %27) #5
  br label %lean_dec.exit22

lean_dec.exit22:                                  ; preds = %26, %34, %36, %37, %8, %16, %18, %19, %23, %20, %5
  %.1 = phi i8 [ 0, %5 ], [ 0, %23 ], [ 1, %20 ], [ %10, %19 ], [ %10, %18 ], [ %10, %16 ], [ %10, %8 ], [ %28, %37 ], [ %28, %36 ], [ %28, %34 ], [ %28, %26 ]
  ret i8 %.1
}